target datalayout = "e-m:e-p270:32:32-p271:32:32-p272:64:64-i64:64-i128:128-f80:128-n8:16:32:64-S128"
target triple = "x86_64-pc-linux-gnu"

%struct.SerializedReindexState = type { i32, i32, i32, [0 x i32] }

@currentlyReindexedHeap = internal global i32 0, align 4
@currentlyReindexedIndex = internal global i32 0, align 4
@pendingReindexedIndexes = internal global ptr null, align 8
@reindexingNestLevel = internal global i32 0, align 4
@TopMemoryContext = external global ptr, align 8
@CurrentMemoryContext = external global ptr, align 8

; Function Attrs: inlinehint nounwind uwtable
define internal ptr @MemoryContextSwitchTo(ptr noundef %0) #4 {
  %2 = alloca ptr, align 8
  %3 = alloca ptr, align 8
  store ptr %0, ptr %2, align 8
  call void @llvm.lifetime.start.p0(i64 8, ptr %3) #8
  %4 = load ptr, ptr @CurrentMemoryContext, align 8
  store ptr %4, ptr %3, align 8
  %5 = load ptr, ptr %2, align 8
  store ptr %5, ptr @CurrentMemoryContext, align 8
  %6 = load ptr, ptr %3, align 8
  call void @llvm.lifetime.end.p0(i64 8, ptr %3) #8
  ret ptr %6
}

; Function Attrs: nounwind uwtable
define dso_local void @RestoreReindexState(ptr noundef %0) #0 {
  %2 = alloca ptr, align 8
  %3 = alloca ptr, align 8
  %4 = alloca i32, align 4
  %5 = alloca ptr, align 8
  store ptr %0, ptr %2, align 8
  call void @llvm.lifetime.start.p0(i64 8, ptr %3) #8
  %6 = load ptr, ptr %2, align 8
  store ptr %6, ptr %3, align 8
  call void @llvm.lifetime.start.p0(i64 4, ptr %4) #8
  store i32 0, ptr %4, align 4
  call void @llvm.lifetime.start.p0(i64 8, ptr %5) #8
  %7 = load ptr, ptr %3, align 8
  %8 = getelementptr inbounds nuw %struct.SerializedReindexState, ptr %7, i32 0, i32 0
  %9 = load i32, ptr %8, align 4
  store i32 %9, ptr @currentlyReindexedHeap, align 4
  %10 = load ptr, ptr %3, align 8
  %11 = getelementptr inbounds nuw %struct.SerializedReindexState, ptr %10, i32 0, i32 1
  %12 = load i32, ptr %11, align 4
  store i32 %12, ptr @currentlyReindexedIndex, align 4
  %13 = load ptr, ptr @TopMemoryContext, align 8
  %14 = call ptr @MemoryContextSwitchTo(ptr noundef %13)
  store ptr %14, ptr %5, align 8
  store i32 0, ptr %4, align 4
  br label %15

15:                                               ; preds = %30, %1
  %16 = load i32, ptr %4, align 4
  %17 = load ptr, ptr %3, align 8
  %18 = getelementptr inbounds nuw %struct.SerializedReindexState, ptr %17, i32 0, i32 2
  %19 = load i32, ptr %18, align 4
  %20 = icmp slt i32 %16, %19
  br i1 %20, label %21, label %33

21:                                               ; preds = %15
  %22 = load ptr, ptr @pendingReindexedIndexes, align 8
  %23 = load ptr, ptr %3, align 8
  %24 = getelementptr inbounds nuw %struct.SerializedReindexState, ptr %23, i32 0, i32 3
  %25 = load i32, ptr %4, align 4
  %26 = sext i32 %25 to i64
  %27 = getelementptr inbounds [0 x i32], ptr %24, i64 0, i64 %26
  %28 = load i32, ptr %27, align 4
  %29 = call ptr @lappend_oid(ptr noundef %22, i32 noundef %28)
  store ptr %29, ptr @pendingReindexedIndexes, align 8
  br label %30

30:                                               ; preds = %21
  %31 = load i32, ptr %4, align 4
  %32 = add i32 %31, 1
  store i32 %32, ptr %4, align 4
  br label %15, !llvm.loop !32

33:                                               ; preds = %15
  %34 = load ptr, ptr %5, align 8
  %35 = call ptr @MemoryContextSwitchTo(ptr noundef %34)
  %36 = call i32 @GetCurrentTransactionNestLevel()
  store i32 %36, ptr @reindexingNestLevel, align 4
  call void @llvm.lifetime.end.p0(i64 8, ptr %5) #8
  call void @llvm.lifetime.end.p0(i64 4, ptr %4) #8
  call void @llvm.lifetime.end.p0(i64 8, ptr %3) #8
  ret void
}