; Function Attrs: nounwind uwtable
define dso_local void @RestoreReindexState(ptr noundef readonly captures(none) %0) local_unnamed_addr #0 {
  %2 = load i32, ptr %0, align 4
  store i32 %2, ptr @currentlyReindexedHeap, align 4
  %3 = getelementptr inbounds nuw i8, ptr %0, i64 4
  %4 = load i32, ptr %3, align 4
  store i32 %4, ptr @currentlyReindexedIndex, align 4
  %5 = load ptr, ptr @TopMemoryContext, align 8
  %6 = load ptr, ptr @CurrentMemoryContext, align 8
  store ptr %5, ptr @CurrentMemoryContext, align 8
  %7 = getelementptr inbounds nuw i8, ptr %0, i64 8
  %8 = load i32, ptr %7, align 4
  %9 = icmp sgt i32 %8, 0
  br i1 %9, label %.lr.ph, label %._crit_edge

.lr.ph:                                           ; preds = %1
  %10 = getelementptr inbounds nuw i8, ptr %0, i64 12
  %.pre = load ptr, ptr @pendingReindexedIndexes, align 8
  br label %11

11:                                               ; preds = %.lr.ph, %11
  %12 = phi ptr [ %.pre, %.lr.ph ], [ %15, %11 ]
  %indvars.iv = phi i64 [ 0, %.lr.ph ], [ %indvars.iv.next, %11 ]
  %13 = getelementptr inbounds nuw [0 x i32], ptr %10, i64 0, i64 %indvars.iv
  %14 = load i32, ptr %13, align 4
  %15 = tail call ptr @lappend_oid(ptr noundef %12, i32 noundef %14) #11
  store ptr %15, ptr @pendingReindexedIndexes, align 8
  %indvars.iv.next = add nuw nsw i64 %indvars.iv, 1
  %16 = load i32, ptr %7, align 4
  %17 = sext i32 %16 to i64
  %18 = icmp slt i64 %indvars.iv.next, %17
  br i1 %18, label %11, label %._crit_edge, !llvm.loop !31

._crit_edge:                                      ; preds = %11, %1
  store ptr %6, ptr @CurrentMemoryContext, align 8
  %19 = tail call i32 @GetCurrentTransactionNestLevel() #11
  store i32 %19, ptr @reindexingNestLevel, align 4
  ret void
}